target datalayout = "e-m:e-p270:32:32-p271:32:32-p272:64:64-i64:64-i128:128-f80:128-n8:16:32:64-S128"
target triple = "x86_64-pc-linux-gnu"

%struct.ImVec2 = type { float, float }

; Function Attrs: mustprogress nounwind uwtable
define linkonce_odr dso_local void @_ZN6ImVec2C2Eff(ptr noundef nonnull align 4 dereferenceable(8) %0, float noundef %1, float noundef %2) unnamed_addr #3 comdat align 2 {
  %4 = alloca ptr, align 8
  %5 = alloca float, align 4
  %6 = alloca float, align 4
  store ptr %0, ptr %4, align 8, !tbaa !33
  store float %1, ptr %5, align 4, !tbaa !12
  store float %2, ptr %6, align 4, !tbaa !12
  %7 = load ptr, ptr %4, align 8
  %8 = getelementptr inbounds nuw %struct.ImVec2, ptr %7, i32 0, i32 0
  %9 = load float, ptr %5, align 4, !tbaa !12
  store float %9, ptr %8, align 4, !tbaa !34
  %10 = getelementptr inbounds nuw %struct.ImVec2, ptr %7, i32 0, i32 1
  %11 = load float, ptr %6, align 4, !tbaa !12
  store float %11, ptr %10, align 4, !tbaa !35
  ret void
}

; Function Attrs: mustprogress uwtable
define dso_local void @_ZN5ImGui21RenderArrowPointingAtEP10ImDrawList6ImVec2S2_8ImGuiDirj(ptr noundef %0, <2 x float> %1, <2 x float> %2, i32 noundef %3, i32 noundef %4) #0 {
  %6 = alloca %struct.ImVec2, align 4
  %7 = alloca %struct.ImVec2, align 4
  %8 = alloca ptr, align 8
  %9 = alloca i32, align 4
  %10 = alloca i32, align 4
  %11 = alloca %struct.ImVec2, align 4
  %12 = alloca %struct.ImVec2, align 4
  %13 = alloca %struct.ImVec2, align 4
  %14 = alloca %struct.ImVec2, align 4
  %15 = alloca %struct.ImVec2, align 4
  %16 = alloca %struct.ImVec2, align 4
  %17 = alloca %struct.ImVec2, align 4
  %18 = alloca %struct.ImVec2, align 4
  store <2 x float> %1, ptr %6, align 4
  store <2 x float> %2, ptr %7, align 4
  store ptr %0, ptr %8, align 8, !tbaa !43
  store i32 %3, ptr %9, align 4, !tbaa !519
  store i32 %4, ptr %10, align 4, !tbaa !21
  %19 = load i32, ptr %9, align 4, !tbaa !519
  switch i32 %19, label %113 [
    i32 0, label %20
    i32 1, label %43
    i32 2, label %66
    i32 3, label %89
    i32 -1, label %112
    i32 4, label %112
  ]

20:                                               ; preds = %5
  %21 = load ptr, ptr %8, align 8, !tbaa !43
  call void @llvm.lifetime.start.p0(i64 8, ptr %11) #17
  %22 = getelementptr inbounds nuw %struct.ImVec2, ptr %6, i32 0, i32 0
  %23 = load float, ptr %22, align 4, !tbaa !34
  %24 = getelementptr inbounds nuw %struct.ImVec2, ptr %7, i32 0, i32 0
  %25 = load float, ptr %24, align 4, !tbaa !34
  %26 = fadd float %23, %25
  %27 = getelementptr inbounds nuw %struct.ImVec2, ptr %6, i32 0, i32 1
  %28 = load float, ptr %27, align 4, !tbaa !35
  %29 = getelementptr inbounds nuw %struct.ImVec2, ptr %7, i32 0, i32 1
  %30 = load float, ptr %29, align 4, !tbaa !35
  %31 = fsub float %28, %30
  call void @_ZN6ImVec2C2Eff(ptr noundef nonnull align 4 dereferenceable(8) %11, float noundef %26, float noundef %31)
  call void @llvm.lifetime.start.p0(i64 8, ptr %12) #17
  %32 = getelementptr inbounds nuw %struct.ImVec2, ptr %6, i32 0, i32 0
  %33 = load float, ptr %32, align 4, !tbaa !34
  %34 = getelementptr inbounds nuw %struct.ImVec2, ptr %7, i32 0, i32 0
  %35 = load float, ptr %34, align 4, !tbaa !34
  %36 = fadd float %33, %35
  %37 = getelementptr inbounds nuw %struct.ImVec2, ptr %6, i32 0, i32 1
  %38 = load float, ptr %37, align 4, !tbaa !35
  %39 = getelementptr inbounds nuw %struct.ImVec2, ptr %7, i32 0, i32 1
  %40 = load float, ptr %39, align 4, !tbaa !35
  %41 = fadd float %38, %40
  call void @_ZN6ImVec2C2Eff(ptr noundef nonnull align 4 dereferenceable(8) %12, float noundef %36, float noundef %41)
  %42 = load i32, ptr %10, align 4, !tbaa !21
  call void @_ZN10ImDrawList17AddTriangleFilledERK6ImVec2S2_S2_j(ptr noundef nonnull align 8 dereferenceable(200) %21, ptr noundef nonnull align 4 dereferenceable(8) %11, ptr noundef nonnull align 4 dereferenceable(8) %12, ptr noundef nonnull align 4 dereferenceable(8) %6, i32 noundef %42)
  call void @llvm.lifetime.end.p0(i64 8, ptr %12) #17
  call void @llvm.lifetime.end.p0(i64 8, ptr %11) #17
  br label %113

43:                                               ; preds = %5
  %44 = load ptr, ptr %8, align 8, !tbaa !43
  call void @llvm.lifetime.start.p0(i64 8, ptr %13) #17
  %45 = getelementptr inbounds nuw %struct.ImVec2, ptr %6, i32 0, i32 0
  %46 = load float, ptr %45, align 4, !tbaa !34
  %47 = getelementptr inbounds nuw %struct.ImVec2, ptr %7, i32 0, i32 0
  %48 = load float, ptr %47, align 4, !tbaa !34
  %49 = fsub float %46, %48
  %50 = getelementptr inbounds nuw %struct.ImVec2, ptr %6, i32 0, i32 1
  %51 = load float, ptr %50, align 4, !tbaa !35
  %52 = getelementptr inbounds nuw %struct.ImVec2, ptr %7, i32 0, i32 1
  %53 = load float, ptr %52, align 4, !tbaa !35
  %54 = fadd float %51, %53
  call void @_ZN6ImVec2C2Eff(ptr noundef nonnull align 4 dereferenceable(8) %13, float noundef %49, float noundef %54)
  call void @llvm.lifetime.start.p0(i64 8, ptr %14) #17
  %55 = getelementptr inbounds nuw %struct.ImVec2, ptr %6, i32 0, i32 0
  %56 = load float, ptr %55, align 4, !tbaa !34
  %57 = getelementptr inbounds nuw %struct.ImVec2, ptr %7, i32 0, i32 0
  %58 = load float, ptr %57, align 4, !tbaa !34
  %59 = fsub float %56, %58
  %60 = getelementptr inbounds nuw %struct.ImVec2, ptr %6, i32 0, i32 1
  %61 = load float, ptr %60, align 4, !tbaa !35
  %62 = getelementptr inbounds nuw %struct.ImVec2, ptr %7, i32 0, i32 1
  %63 = load float, ptr %62, align 4, !tbaa !35
  %64 = fsub float %61, %63
  call void @_ZN6ImVec2C2Eff(ptr noundef nonnull align 4 dereferenceable(8) %14, float noundef %59, float noundef %64)
  %65 = load i32, ptr %10, align 4, !tbaa !21
  call void @_ZN10ImDrawList17AddTriangleFilledERK6ImVec2S2_S2_j(ptr noundef nonnull align 8 dereferenceable(200) %44, ptr noundef nonnull align 4 dereferenceable(8) %13, ptr noundef nonnull align 4 dereferenceable(8) %14, ptr noundef nonnull align 4 dereferenceable(8) %6, i32 noundef %65)
  call void @llvm.lifetime.end.p0(i64 8, ptr %14) #17
  call void @llvm.lifetime.end.p0(i64 8, ptr %13) #17
  br label %113

66:                                               ; preds = %5
  %67 = load ptr, ptr %8, align 8, !tbaa !43
  call void @llvm.lifetime.start.p0(i64 8, ptr %15) #17
  %68 = getelementptr inbounds nuw %struct.ImVec2, ptr %6, i32 0, i32 0
  %69 = load float, ptr %68, align 4, !tbaa !34
  %70 = getelementptr inbounds nuw %struct.ImVec2, ptr %7, i32 0, i32 0
  %71 = load float, ptr %70, align 4, !tbaa !34
  %72 = fadd float %69, %71
  %73 = getelementptr inbounds nuw %struct.ImVec2, ptr %6, i32 0, i32 1
  %74 = load float, ptr %73, align 4, !tbaa !35
  %75 = getelementptr inbounds nuw %struct.ImVec2, ptr %7, i32 0, i32 1
  %76 = load float, ptr %75, align 4, !tbaa !35
  %77 = fadd float %74, %76
  call void @_ZN6ImVec2C2Eff(ptr noundef nonnull align 4 dereferenceable(8) %15, float noundef %72, float noundef %77)
  call void @llvm.lifetime.start.p0(i64 8, ptr %16) #17
  %78 = getelementptr inbounds nuw %struct.ImVec2, ptr %6, i32 0, i32 0
  %79 = load float, ptr %78, align 4, !tbaa !34
  %80 = getelementptr inbounds nuw %struct.ImVec2, ptr %7, i32 0, i32 0
  %81 = load float, ptr %80, align 4, !tbaa !34
  %82 = fsub float %79, %81
  %83 = getelementptr inbounds nuw %struct.ImVec2, ptr %6, i32 0, i32 1
  %84 = load float, ptr %83, align 4, !tbaa !35
  %85 = getelementptr inbounds nuw %struct.ImVec2, ptr %7, i32 0, i32 1
  %86 = load float, ptr %85, align 4, !tbaa !35
  %87 = fadd float %84, %86
  call void @_ZN6ImVec2C2Eff(ptr noundef nonnull align 4 dereferenceable(8) %16, float noundef %82, float noundef %87)
  %88 = load i32, ptr %10, align 4, !tbaa !21
  call void @_ZN10ImDrawList17AddTriangleFilledERK6ImVec2S2_S2_j(ptr noundef nonnull align 8 dereferenceable(200) %67, ptr noundef nonnull align 4 dereferenceable(8) %15, ptr noundef nonnull align 4 dereferenceable(8) %16, ptr noundef nonnull align 4 dereferenceable(8) %6, i32 noundef %88)
  call void @llvm.lifetime.end.p0(i64 8, ptr %16) #17
  call void @llvm.lifetime.end.p0(i64 8, ptr %15) #17
  br label %113

89:                                               ; preds = %5
  %90 = load ptr, ptr %8, align 8, !tbaa !43
  call void @llvm.lifetime.start.p0(i64 8, ptr %17) #17
  %91 = getelementptr inbounds nuw %struct.ImVec2, ptr %6, i32 0, i32 0
  %92 = load float, ptr %91, align 4, !tbaa !34
  %93 = getelementptr inbounds nuw %struct.ImVec2, ptr %7, i32 0, i32 0
  %94 = load float, ptr %93, align 4, !tbaa !34
  %95 = fsub float %92, %94
  %96 = getelementptr inbounds nuw %struct.ImVec2, ptr %6, i32 0, i32 1
  %97 = load float, ptr %96, align 4, !tbaa !35
  %98 = getelementptr inbounds nuw %struct.ImVec2, ptr %7, i32 0, i32 1
  %99 = load float, ptr %98, align 4, !tbaa !35
  %100 = fsub float %97, %99
  call void @_ZN6ImVec2C2Eff(ptr noundef nonnull align 4 dereferenceable(8) %17, float noundef %95, float noundef %100)
  call void @llvm.lifetime.start.p0(i64 8, ptr %18) #17
  %101 = getelementptr inbounds nuw %struct.ImVec2, ptr %6, i32 0, i32 0
  %102 = load float, ptr %101, align 4, !tbaa !34
  %103 = getelementptr inbounds nuw %struct.ImVec2, ptr %7, i32 0, i32 0
  %104 = load float, ptr %103, align 4, !tbaa !34
  %105 = fadd float %102, %104
  %106 = getelementptr inbounds nuw %struct.ImVec2, ptr %6, i32 0, i32 1
  %107 = load float, ptr %106, align 4, !tbaa !35
  %108 = getelementptr inbounds nuw %struct.ImVec2, ptr %7, i32 0, i32 1
  %109 = load float, ptr %108, align 4, !tbaa !35
  %110 = fsub float %107, %109
  call void @_ZN6ImVec2C2Eff(ptr noundef nonnull align 4 dereferenceable(8) %18, float noundef %105, float noundef %110)
  %111 = load i32, ptr %10, align 4, !tbaa !21
  call void @_ZN10ImDrawList17AddTriangleFilledERK6ImVec2S2_S2_j(ptr noundef nonnull align 8 dereferenceable(200) %90, ptr noundef nonnull align 4 dereferenceable(8) %17, ptr noundef nonnull align 4 dereferenceable(8) %18, ptr noundef nonnull align 4 dereferenceable(8) %6, i32 noundef %111)
  call void @llvm.lifetime.end.p0(i64 8, ptr %18) #17
  call void @llvm.lifetime.end.p0(i64 8, ptr %17) #17
  br label %113

112:                                              ; preds = %5, %5
  br label %113

113:                                              ; preds = %20, %43, %66, %89, %5, %112
  ret void
}