; Function Attrs: mustprogress uwtable
define dso_local void @_ZN5ImGui21RenderArrowPointingAtEP10ImDrawList6ImVec2S2_8ImGuiDirj(ptr noundef captures(none) %0, <2 x float> %1, <2 x float> %2, i32 noundef %3, i32 noundef %4) local_unnamed_addr #0 {
  %6 = alloca %struct.ImVec2, align 8
  %7 = alloca %struct.ImVec2, align 4
  %8 = alloca %struct.ImVec2, align 4
  %9 = alloca %struct.ImVec2, align 4
  %10 = alloca %struct.ImVec2, align 4
  %11 = alloca %struct.ImVec2, align 4
  %12 = alloca %struct.ImVec2, align 4
  %13 = alloca %struct.ImVec2, align 4
  %14 = alloca %struct.ImVec2, align 4
  store <2 x float> %1, ptr %6, align 8
  %15 = extractelement <2 x float> %1, i64 1
  switch i32 %3, label %48 [
    i32 0, label %16
    i32 1, label %23
    i32 2, label %30
    i32 3, label %39
  ]

16:                                               ; preds = %5
  call void @llvm.lifetime.start.p0(i64 8, ptr nonnull %7) #42
  %17 = fadd <2 x float> %2, %1
  %18 = extractelement <2 x float> %17, i64 0
  %.sroa.0.4.vec.extract = extractelement <2 x float> %2, i64 1
  %19 = fsub float %15, %.sroa.0.4.vec.extract
  store float %18, ptr %7, align 4, !tbaa !93
  %20 = getelementptr inbounds nuw i8, ptr %7, i64 4
  store float %19, ptr %20, align 4, !tbaa !94
  call void @llvm.lifetime.start.p0(i64 8, ptr nonnull %8) #42
  %21 = fadd float %.sroa.0.4.vec.extract, %15
  store float %18, ptr %8, align 4, !tbaa !93
  %22 = getelementptr inbounds nuw i8, ptr %8, i64 4
  store float %21, ptr %22, align 4, !tbaa !94
  call void @_ZN10ImDrawList17AddTriangleFilledERK6ImVec2S2_S2_j(ptr noundef nonnull align 8 dereferenceable(200) %0, ptr noundef nonnull align 4 dereferenceable(8) %7, ptr noundef nonnull align 4 dereferenceable(8) %8, ptr noundef nonnull align 4 dereferenceable(8) %6, i32 noundef %4)
  call void @llvm.lifetime.end.p0(i64 8, ptr nonnull %8) #42
  call void @llvm.lifetime.end.p0(i64 8, ptr nonnull %7) #42
  br label %48

23:                                               ; preds = %5
  call void @llvm.lifetime.start.p0(i64 8, ptr nonnull %9) #42
  %24 = fsub <2 x float> %1, %2
  %25 = extractelement <2 x float> %24, i64 0
  %.sroa.0.4.vec.extract25 = extractelement <2 x float> %2, i64 1
  %26 = fadd float %.sroa.0.4.vec.extract25, %15
  store float %25, ptr %9, align 4, !tbaa !93
  %27 = getelementptr inbounds nuw i8, ptr %9, i64 4
  store float %26, ptr %27, align 4, !tbaa !94
  call void @llvm.lifetime.start.p0(i64 8, ptr nonnull %10) #42
  %28 = fsub float %15, %.sroa.0.4.vec.extract25
  store float %25, ptr %10, align 4, !tbaa !93
  %29 = getelementptr inbounds nuw i8, ptr %10, i64 4
  store float %28, ptr %29, align 4, !tbaa !94
  call void @_ZN10ImDrawList17AddTriangleFilledERK6ImVec2S2_S2_j(ptr noundef nonnull align 8 dereferenceable(200) %0, ptr noundef nonnull align 4 dereferenceable(8) %9, ptr noundef nonnull align 4 dereferenceable(8) %10, ptr noundef nonnull align 4 dereferenceable(8) %6, i32 noundef %4)
  call void @llvm.lifetime.end.p0(i64 8, ptr nonnull %10) #42
  call void @llvm.lifetime.end.p0(i64 8, ptr nonnull %9) #42
  br label %48

30:                                               ; preds = %5
  call void @llvm.lifetime.start.p0(i64 8, ptr nonnull %11) #42
  %31 = fadd <2 x float> %2, %1
  %32 = extractelement <2 x float> %31, i64 0
  %33 = fadd <2 x float> %2, %1
  %34 = extractelement <2 x float> %33, i64 1
  store float %32, ptr %11, align 4, !tbaa !93
  %35 = getelementptr inbounds nuw i8, ptr %11, i64 4
  store float %34, ptr %35, align 4, !tbaa !94
  call void @llvm.lifetime.start.p0(i64 8, ptr nonnull %12) #42
  %36 = fsub <2 x float> %1, %2
  %37 = extractelement <2 x float> %36, i64 0
  store float %37, ptr %12, align 4, !tbaa !93
  %38 = getelementptr inbounds nuw i8, ptr %12, i64 4
  store float %34, ptr %38, align 4, !tbaa !94
  call void @_ZN10ImDrawList17AddTriangleFilledERK6ImVec2S2_S2_j(ptr noundef nonnull align 8 dereferenceable(200) %0, ptr noundef nonnull align 4 dereferenceable(8) %11, ptr noundef nonnull align 4 dereferenceable(8) %12, ptr noundef nonnull align 4 dereferenceable(8) %6, i32 noundef %4)
  call void @llvm.lifetime.end.p0(i64 8, ptr nonnull %12) #42
  call void @llvm.lifetime.end.p0(i64 8, ptr nonnull %11) #42
  br label %48

39:                                               ; preds = %5
  call void @llvm.lifetime.start.p0(i64 8, ptr nonnull %13) #42
  %40 = fsub <2 x float> %1, %2
  %41 = extractelement <2 x float> %40, i64 0
  %42 = fsub <2 x float> %1, %2
  %43 = extractelement <2 x float> %42, i64 1
  store float %41, ptr %13, align 4, !tbaa !93
  %44 = getelementptr inbounds nuw i8, ptr %13, i64 4
  store float %43, ptr %44, align 4, !tbaa !94
  call void @llvm.lifetime.start.p0(i64 8, ptr nonnull %14) #42
  %45 = fadd <2 x float> %2, %1
  %46 = extractelement <2 x float> %45, i64 0
  store float %46, ptr %14, align 4, !tbaa !93
  %47 = getelementptr inbounds nuw i8, ptr %14, i64 4
  store float %43, ptr %47, align 4, !tbaa !94
  call void @_ZN10ImDrawList17AddTriangleFilledERK6ImVec2S2_S2_j(ptr noundef nonnull align 8 dereferenceable(200) %0, ptr noundef nonnull align 4 dereferenceable(8) %13, ptr noundef nonnull align 4 dereferenceable(8) %14, ptr noundef nonnull align 4 dereferenceable(8) %6, i32 noundef %4)
  call void @llvm.lifetime.end.p0(i64 8, ptr nonnull %14) #42
  call void @llvm.lifetime.end.p0(i64 8, ptr nonnull %13) #42
  br label %48

48:                                               ; preds = %39, %30, %23, %16, %5
  ret void
}